target datalayout = "e-m:e-p270:32:32-p271:32:32-p272:64:64-i64:64-i128:128-f80:128-n8:16:32:64-S128"
target triple = "x86_64-pc-linux-gnu"

%"class.std::__cxx11::basic_string" = type { %"struct.std::__cxx11::basic_string<char>::_Alloc_hider", i64, %union.anon }
%"struct.std::__cxx11::basic_string<char>::_Alloc_hider" = type { ptr }
%union.anon = type { i64, [8 x i8] }
%"class.std::__shared_count" = type { ptr }
%"struct.xgboost::Context" = type <{ %"struct.xgboost::XGBoostParameter", [7 x i8], %"class.std::__cxx11::basic_string", %"struct.xgboost::DeviceOrd", i32, i64, i8, i8, i8, [5 x i8], %"class.std::shared_ptr", i32, [4 x i8] }>
%"struct.xgboost::XGBoostParameter" = type { i8 }
%"struct.xgboost::DeviceOrd" = type { i16, i16 }
%"class.std::shared_ptr" = type { %"class.std::__shared_ptr" }
%"class.std::__shared_ptr" = type { ptr, %"class.std::__shared_count" }

; Function Attrs: inlinehint mustprogress nounwind uwtable
define linkonce_odr noundef nonnull align 4 dereferenceable(4) ptr @_ZSt3minIiERKT_S2_S2_(ptr noundef nonnull align 4 dereferenceable(4) %0, ptr noundef nonnull align 4 dereferenceable(4) %1) #7 comdat {
  %3 = alloca ptr, align 8
  %4 = alloca ptr, align 8
  %5 = alloca ptr, align 8
  store ptr %0, ptr %4, align 8, !tbaa !113
  store ptr %1, ptr %5, align 8, !tbaa !113
  %6 = load ptr, ptr %5, align 8, !tbaa !113
  %7 = load i32, ptr %6, align 4, !tbaa !72
  %8 = load ptr, ptr %4, align 8, !tbaa !113
  %9 = load i32, ptr %8, align 4, !tbaa !72
  %10 = icmp slt i32 %7, %9
  br i1 %10, label %11, label %13

11:                                               ; preds = %2
  %12 = load ptr, ptr %5, align 8, !tbaa !113
  store ptr %12, ptr %3, align 8
  br label %15

13:                                               ; preds = %2
  %14 = load ptr, ptr %4, align 8, !tbaa !113
  store ptr %14, ptr %3, align 8
  br label %15

15:                                               ; preds = %13, %11
  %16 = load ptr, ptr %3, align 8
  ret ptr %16
}

; Function Attrs: mustprogress uwtable
define noundef i32 @_ZNK7xgboost7Context7ThreadsEv(ptr noundef nonnull align 8 dereferenceable(84) %0) #4 align 2 {
  %2 = alloca ptr, align 8
  %3 = alloca i32, align 4
  store ptr %0, ptr %2, align 8, !tbaa !19
  %4 = load ptr, ptr %2, align 8
  call void @llvm.lifetime.start.p0(i64 4, ptr %3) #3
  %5 = getelementptr inbounds nuw %"struct.xgboost::Context", ptr %4, i32 0, i32 4
  %6 = load i32, ptr %5, align 4, !tbaa !21
  %7 = call noundef i32 @_ZN7xgboost6common16OmpGetNumThreadsEi(i32 noundef %6) #3
  store i32 %7, ptr %3, align 4, !tbaa !72
  %8 = getelementptr inbounds nuw %"struct.xgboost::Context", ptr %4, i32 0, i32 11
  %9 = load i32, ptr %8, align 8, !tbaa !41
  %10 = icmp sgt i32 %9, 0
  br i1 %10, label %11, label %15

11:                                               ; preds = %1
  %12 = getelementptr inbounds nuw %"struct.xgboost::Context", ptr %4, i32 0, i32 11
  %13 = call noundef nonnull align 4 dereferenceable(4) ptr @_ZSt3minIiERKT_S2_S2_(ptr noundef nonnull align 4 dereferenceable(4) %3, ptr noundef nonnull align 4 dereferenceable(4) %12)
  %14 = load i32, ptr %13, align 4, !tbaa !72
  store i32 %14, ptr %3, align 4, !tbaa !72
  br label %15

15:                                               ; preds = %11, %1
  %16 = load i32, ptr %3, align 4, !tbaa !72
  call void @llvm.lifetime.end.p0(i64 4, ptr %3) #3
  ret i32 %16
}