; Function Attrs: mustprogress nounwind uwtable
define noundef i32 @_ZNK7xgboost7Context7ThreadsEv(ptr noundef nonnull readonly align 8 captures(none) dereferenceable(84) %0) local_unnamed_addr #6 align 2 {
  %2 = getelementptr inbounds nuw i8, ptr %0, i64 44
  %3 = load i32, ptr %2, align 4, !tbaa !159
  %4 = tail call noundef i32 @_ZN7xgboost6common16OmpGetNumThreadsEi(i32 noundef %3) #16
  %5 = getelementptr inbounds nuw i8, ptr %0, i64 80
  %6 = load i32, ptr %5, align 8, !tbaa !39
  %7 = icmp sgt i32 %6, 0
  %.sroa.speculated = tail call i32 @llvm.smin.i32(i32 %6, i32 %4)
  %.0 = select i1 %7, i32 %.sroa.speculated, i32 %4
  ret i32 %.0
}